target datalayout = "e-m:e-p270:32:32-p271:32:32-p272:64:64-i64:64-i128:128-f80:128-n8:16:32:64-S128"
target triple = "x86_64-unknown-linux-gnu"

%"class.llvh::raw_pwrite_stream.base" = type { %"class.llvh::raw_ostream.base" }
%"class.llvh::raw_ostream.base" = type <{ ptr, ptr, ptr, ptr, i32 }>
%"class.llvh::raw_svector_ostream" = type { %"class.llvh::raw_pwrite_stream.base", ptr }

; Function Attrs: mustprogress nounwind uwtable
define linkonce_odr hidden noundef ptr @_ZN4llvh25SmallVectorTemplateCommonIcvE4dataEv(ptr noundef nonnull align 8 dereferenceable(16) %this) #0 comdat align 2 {
entry:
  %this.addr.i = alloca ptr, align 8
  %this.addr = alloca ptr, align 8
  store ptr %this, ptr %this.addr, align 8
  %this1 = load ptr, ptr %this.addr, align 8
  store ptr %this1, ptr %this.addr.i, align 8
  %this1.i = load ptr, ptr %this.addr.i, align 8
  %0 = load ptr, ptr %this1.i, align 8
  ret ptr %0
}

; Function Attrs: mustprogress nounwind uwtable
define hidden void @_ZN4llvh19raw_svector_ostream11pwrite_implEPKcmm(ptr noundef nonnull align 8 dereferenceable(48) %this, ptr noundef %Ptr, i64 noundef %Size, i64 noundef %Offset) unnamed_addr #0 align 2 {
entry:
  %this.addr = alloca ptr, align 8
  %Ptr.addr = alloca ptr, align 8
  %Size.addr = alloca i64, align 8
  %Offset.addr = alloca i64, align 8
  store ptr %this, ptr %this.addr, align 8
  store ptr %Ptr, ptr %Ptr.addr, align 8
  store i64 %Size, ptr %Size.addr, align 8
  store i64 %Offset, ptr %Offset.addr, align 8
  %this1 = load ptr, ptr %this.addr, align 8
  %OS = getelementptr inbounds %"class.llvh::raw_svector_ostream", ptr %this1, i32 0, i32 1
  %0 = load ptr, ptr %OS, align 8
  %call = call noundef ptr @_ZN4llvh25SmallVectorTemplateCommonIcvE4dataEv(ptr noundef nonnull align 8 dereferenceable(16) %0)
  %1 = load i64, ptr %Offset.addr, align 8
  %add.ptr = getelementptr inbounds i8, ptr %call, i64 %1
  %2 = load ptr, ptr %Ptr.addr, align 8
  %3 = load i64, ptr %Size.addr, align 8
  call void @llvm.memcpy.p0.p0.i64(ptr align 1 %add.ptr, ptr align 1 %2, i64 %3, i1 false)
  ret void
}