; Function Attrs: mustprogress nofree norecurse nosync nounwind willreturn memory(readwrite, inaccessiblemem: none) uwtable
define hidden void @_ZN4llvh19raw_svector_ostream11pwrite_implEPKcmm(ptr nocapture noundef nonnull readonly align 8 dereferenceable(48) %this, ptr nocapture noundef readonly %Ptr, i64 noundef %Size, i64 noundef %Offset) unnamed_addr #6 align 2 {
entry:
  %OS = getelementptr inbounds i8, ptr %this, i64 40
  %0 = load ptr, ptr %OS, align 8
  %1 = load ptr, ptr %0, align 8
  %add.ptr = getelementptr inbounds i8, ptr %1, i64 %Offset
  tail call void @llvm.memcpy.p0.p0.i64(ptr align 1 %add.ptr, ptr align 1 %Ptr, i64 %Size, i1 false)
  ret void
}